target datalayout = "e-m:e-p270:32:32-p271:32:32-p272:64:64-i64:64-i128:128-f80:128-n8:16:32:64-S128"
target triple = "x86_64-pc-linux-gnu"

@.str.8 = private unnamed_addr constant [18 x i8] c"%s[%d] (%s - %s)\0A\00", align 1
@.str.9 = private unnamed_addr constant [14 x i8] c"%s (%s - %s)\0A\00", align 1
@.str.10 = private unnamed_addr constant [5 x i8] c"true\00", align 1
@.str.11 = private unnamed_addr constant [6 x i8] c"false\00", align 1

; Function Attrs: inlinehint mustprogress nounwind uwtable
define internal noundef ptr @_ZN3gmxL12boolToStringEb(i1 noundef zeroext %0) #3 {
  %2 = alloca i8, align 1
  %3 = zext i1 %0 to i8
  store i8 %3, ptr %2, align 1, !tbaa !18
  %4 = load i8, ptr %2, align 1, !tbaa !18, !range !20, !noundef !21
  %5 = trunc i8 %4 to i1
  %6 = select i1 %5, ptr @.str.10, ptr @.str.11
  ret ptr %6
}

; Function Attrs: mustprogress uwtable
define noundef zeroext i1 @_Z8cmp_boolP8_IO_FILEPKcibb(ptr noundef %0, ptr noundef %1, i32 noundef %2, i1 noundef zeroext %3, i1 noundef zeroext %4) #2 {
  %6 = alloca ptr, align 8
  %7 = alloca ptr, align 8
  %8 = alloca i32, align 4
  %9 = alloca i8, align 1
  %10 = alloca i8, align 1
  store ptr %0, ptr %6, align 8, !tbaa !4
  store ptr %1, ptr %7, align 8, !tbaa !9
  store i32 %2, ptr %8, align 4, !tbaa !11
  %11 = zext i1 %3 to i8
  store i8 %11, ptr %9, align 1, !tbaa !18
  %12 = zext i1 %4 to i8
  store i8 %12, ptr %10, align 1, !tbaa !18
  %13 = load i8, ptr %9, align 1, !tbaa !18, !range !20, !noundef !21
  %14 = trunc i8 %13 to i1
  %15 = zext i1 %14 to i32
  %16 = load i8, ptr %10, align 1, !tbaa !18, !range !20, !noundef !21
  %17 = trunc i8 %16 to i1
  %18 = zext i1 %17 to i32
  %19 = icmp ne i32 %15, %18
  br i1 %19, label %20, label %45

20:                                               ; preds = %5
  %21 = load i32, ptr %8, align 4, !tbaa !11
  %22 = icmp ne i32 %21, -1
  br i1 %22, label %23, label %34

23:                                               ; preds = %20
  %24 = load ptr, ptr %6, align 8, !tbaa !4
  %25 = load ptr, ptr %7, align 8, !tbaa !9
  %26 = load i32, ptr %8, align 4, !tbaa !11
  %27 = load i8, ptr %9, align 1, !tbaa !18, !range !20, !noundef !21
  %28 = trunc i8 %27 to i1
  %29 = call noundef ptr @_ZN3gmxL12boolToStringEb(i1 noundef zeroext %28)
  %30 = load i8, ptr %10, align 1, !tbaa !18, !range !20, !noundef !21
  %31 = trunc i8 %30 to i1
  %32 = call noundef ptr @_ZN3gmxL12boolToStringEb(i1 noundef zeroext %31)
  %33 = call i32 (ptr, ptr, ...) @fprintf(ptr noundef %24, ptr noundef @.str.8, ptr noundef %25, i32 noundef %26, ptr noundef %29, ptr noundef %32) #6
  br label %44

34:                                               ; preds = %20
  %35 = load ptr, ptr %6, align 8, !tbaa !4
  %36 = load ptr, ptr %7, align 8, !tbaa !9
  %37 = load i8, ptr %9, align 1, !tbaa !18, !range !20, !noundef !21
  %38 = trunc i8 %37 to i1
  %39 = call noundef ptr @_ZN3gmxL12boolToStringEb(i1 noundef zeroext %38)
  %40 = load i8, ptr %10, align 1, !tbaa !18, !range !20, !noundef !21
  %41 = trunc i8 %40 to i1
  %42 = call noundef ptr @_ZN3gmxL12boolToStringEb(i1 noundef zeroext %41)
  %43 = call i32 (ptr, ptr, ...) @fprintf(ptr noundef %35, ptr noundef @.str.9, ptr noundef %36, ptr noundef %39, ptr noundef %42) #6
  br label %44

44:                                               ; preds = %34, %23
  br label %45

45:                                               ; preds = %44, %5
  %46 = load i8, ptr %9, align 1, !tbaa !18, !range !20, !noundef !21
  %47 = trunc i8 %46 to i1
  br i1 %47, label %48, label %51

48:                                               ; preds = %45
  %49 = load i8, ptr %10, align 1, !tbaa !18, !range !20, !noundef !21
  %50 = trunc i8 %49 to i1
  br label %51

51:                                               ; preds = %48, %45
  %52 = phi i1 [ false, %45 ], [ %50, %48 ]
  ret i1 %52
}