; Function Attrs: mustprogress nofree nounwind uwtable
define noundef zeroext i1 @_Z8cmp_boolP8_IO_FILEPKcibb(ptr noundef captures(none) %0, ptr noundef %1, i32 noundef %2, i1 noundef zeroext %3, i1 noundef zeroext %4) local_unnamed_addr #0 {
  %6 = xor i1 %3, %4
  br i1 %6, label %7, label %14

7:                                                ; preds = %5
  %.not = icmp eq i32 %2, -1
  %8 = select i1 %3, ptr @.str.10, ptr @.str.11
  %9 = select i1 %4, ptr @.str.10, ptr @.str.11
  br i1 %.not, label %12, label %10

10:                                               ; preds = %7
  %11 = tail call i32 (ptr, ptr, ...) @fprintf(ptr noundef %0, ptr noundef nonnull @.str.8, ptr noundef %1, i32 noundef %2, ptr noundef nonnull %8, ptr noundef nonnull %9) #6
  br label %14

12:                                               ; preds = %7
  %13 = tail call i32 (ptr, ptr, ...) @fprintf(ptr noundef %0, ptr noundef nonnull @.str.9, ptr noundef %1, ptr noundef nonnull %8, ptr noundef nonnull %9) #6
  br label %14

14:                                               ; preds = %10, %12, %5
  %15 = and i1 %3, %4
  ret i1 %15
}